; Function Attrs: mustprogress uwtable
define void @_ZN7rocksdb13DBWithTTLImpl20SanityCheckTimestampERKNS_5SliceE(ptr noalias sret(%"class.rocksdb::Status") align 8 %agg.result, ptr nocapture noundef nonnull readonly align 8 dereferenceable(16) %str) local_unnamed_addr #2 align 2 personality ptr @__gxx_personality_v0 {
entry:
  %ref.tmp = alloca %"class.rocksdb::Slice", align 8
  %ref.tmp1 = alloca %"class.rocksdb::Slice", align 8
  %ref.tmp8 = alloca %"class.rocksdb::Slice", align 8
  %ref.tmp9 = alloca %"class.rocksdb::Slice", align 8
  %size_.i = getelementptr inbounds i8, ptr %str, i64 8
  %0 = load i64, ptr %size_.i, align 8
  %cmp = icmp ult i64 %0, 4
  br i1 %cmp, label %if.then, label %if.end

if.then:                                          ; preds = %entry
  store ptr @.str.23, ptr %ref.tmp, align 8
  %size_.i3 = getelementptr inbounds i8, ptr %ref.tmp, i64 8
  store i64 44, ptr %size_.i3, align 8
  store ptr @.str.27, ptr %ref.tmp1, align 8
  %size_.i4 = getelementptr inbounds i8, ptr %ref.tmp1, i64 8
  store i64 0, ptr %size_.i4, align 8
  call void @_ZN7rocksdb6StatusC2ENS0_4CodeENS0_7SubCodeERKNS_5SliceES5_NS0_8SeverityE(ptr noundef nonnull align 8 dereferenceable(16) %agg.result, i8 noundef zeroext 2, i8 noundef zeroext 0, ptr noundef nonnull align 8 dereferenceable(16) %ref.tmp, ptr noundef nonnull align 8 dereferenceable(16) %ref.tmp1, i8 noundef zeroext 0)
  br label %return

if.end:                                           ; preds = %entry
  %1 = load ptr, ptr %str, align 8
  %add.ptr = getelementptr inbounds i8, ptr %1, i64 %0
  %add.ptr4 = getelementptr inbounds i8, ptr %add.ptr, i64 -4
  %result.0.copyload.i = load i32, ptr %add.ptr4, align 1
  %cmp6 = icmp slt i32 %result.0.copyload.i, 1368146402
  br i1 %cmp6, label %if.then7, label %if.end10

if.then7:                                         ; preds = %if.end
  store ptr @.str.24, ptr %ref.tmp8, align 8
  %size_.i7 = getelementptr inbounds i8, ptr %ref.tmp8, i64 8
  store i64 45, ptr %size_.i7, align 8
  store ptr @.str.27, ptr %ref.tmp9, align 8
  %size_.i8 = getelementptr inbounds i8, ptr %ref.tmp9, i64 8
  store i64 0, ptr %size_.i8, align 8
  call void @_ZN7rocksdb6StatusC2ENS0_4CodeENS0_7SubCodeERKNS_5SliceES5_NS0_8SeverityE(ptr noundef nonnull align 8 dereferenceable(16) %agg.result, i8 noundef zeroext 2, i8 noundef zeroext 0, ptr noundef nonnull align 8 dereferenceable(16) %ref.tmp8, ptr noundef nonnull align 8 dereferenceable(16) %ref.tmp9, i8 noundef zeroext 0)
  br label %return

if.end10:                                         ; preds = %if.end
  %state_.i.i = getelementptr inbounds i8, ptr %agg.result, i64 8
  store ptr null, ptr %state_.i.i, align 8, !alias.scope !29
  tail call void @llvm.memset.p0.i64(ptr noundef nonnull align 8 dereferenceable(6) %agg.result, i8 0, i64 6, i1 false), !alias.scope !29
  br label %return

return:                                           ; preds = %if.end10, %if.then7, %if.then
  ret void
}